target datalayout = "e-m:e-p270:32:32-p271:32:32-p272:64:64-i64:64-i128:128-f80:128-n8:16:32:64-S128"
target triple = "x86_64-pc-linux-gnu"

%struct.PlannedStmt = type { i32, i32, i64, i8, i8, i8, i8, i8, i8, i32, ptr, ptr, ptr, ptr, ptr, ptr, ptr, ptr, ptr, ptr, ptr, ptr, ptr, ptr, i32, i32 }
%struct.QueryDesc = type { i32, ptr, ptr, ptr, ptr, ptr, ptr, ptr, i32, ptr, ptr, ptr, i8, ptr }
%struct.QueryCompletion = type { i32, i64 }
%struct.EState = type { i32, i32, ptr, ptr, ptr, i32, ptr, ptr, ptr, ptr, ptr, ptr, ptr, ptr, ptr, ptr, i32, ptr, ptr, ptr, ptr, ptr, ptr, ptr, ptr, ptr, ptr, i64, i64, i32, i32, i8, ptr, ptr, ptr, ptr, ptr, i8, i32, i32, ptr, i32, ptr, ptr, ptr, ptr }

; Function Attrs: nounwind uwtable
define dso_local void @FreeQueryDesc(ptr noundef %0) #0 {
  %2 = alloca ptr, align 8
  store ptr %0, ptr %2, align 8
  %3 = load ptr, ptr %2, align 8
  %4 = getelementptr inbounds nuw %struct.QueryDesc, ptr %3, i32 0, i32 3
  %5 = load ptr, ptr %4, align 8
  call void @UnregisterSnapshot(ptr noundef %5)
  %6 = load ptr, ptr %2, align 8
  %7 = getelementptr inbounds nuw %struct.QueryDesc, ptr %6, i32 0, i32 4
  %8 = load ptr, ptr %7, align 8
  call void @UnregisterSnapshot(ptr noundef %8)
  %9 = load ptr, ptr %2, align 8
  call void @pfree(ptr noundef %9)
  ret void
}

; Function Attrs: inlinehint nounwind uwtable
define internal void @SetQueryCompletion(ptr noundef %0, i32 noundef %1, i64 noundef %2) #3 {
  %4 = alloca ptr, align 8
  %5 = alloca i32, align 4
  %6 = alloca i64, align 8
  store ptr %0, ptr %4, align 8
  store i32 %1, ptr %5, align 4
  store i64 %2, ptr %6, align 8
  %7 = load i32, ptr %5, align 4
  %8 = load ptr, ptr %4, align 8
  %9 = getelementptr inbounds nuw %struct.QueryCompletion, ptr %8, i32 0, i32 0
  store i32 %7, ptr %9, align 8
  %10 = load i64, ptr %6, align 8
  %11 = load ptr, ptr %4, align 8
  %12 = getelementptr inbounds nuw %struct.QueryCompletion, ptr %11, i32 0, i32 1
  store i64 %10, ptr %12, align 8
  ret void
}

; Function Attrs: nounwind uwtable
define dso_local ptr @CreateQueryDesc(ptr noundef %0, ptr noundef %1, ptr noundef %2, ptr noundef %3, ptr noundef %4, ptr noundef %5, ptr noundef %6, i32 noundef %7) #0 {
  %9 = alloca ptr, align 8
  %10 = alloca ptr, align 8
  %11 = alloca ptr, align 8
  %12 = alloca ptr, align 8
  %13 = alloca ptr, align 8
  %14 = alloca ptr, align 8
  %15 = alloca ptr, align 8
  %16 = alloca i32, align 4
  %17 = alloca ptr, align 8
  store ptr %0, ptr %9, align 8
  store ptr %1, ptr %10, align 8
  store ptr %2, ptr %11, align 8
  store ptr %3, ptr %12, align 8
  store ptr %4, ptr %13, align 8
  store ptr %5, ptr %14, align 8
  store ptr %6, ptr %15, align 8
  store i32 %7, ptr %16, align 4
  call void @llvm.lifetime.start.p0(i64 8, ptr %17) #10
  %18 = call ptr @palloc(i64 noundef 112)
  store ptr %18, ptr %17, align 8
  %19 = load ptr, ptr %9, align 8
  %20 = getelementptr inbounds nuw %struct.PlannedStmt, ptr %19, i32 0, i32 1
  %21 = load i32, ptr %20, align 4
  %22 = load ptr, ptr %17, align 8
  %23 = getelementptr inbounds nuw %struct.QueryDesc, ptr %22, i32 0, i32 0
  store i32 %21, ptr %23, align 8
  %24 = load ptr, ptr %9, align 8
  %25 = load ptr, ptr %17, align 8
  %26 = getelementptr inbounds nuw %struct.QueryDesc, ptr %25, i32 0, i32 1
  store ptr %24, ptr %26, align 8
  %27 = load ptr, ptr %10, align 8
  %28 = load ptr, ptr %17, align 8
  %29 = getelementptr inbounds nuw %struct.QueryDesc, ptr %28, i32 0, i32 2
  store ptr %27, ptr %29, align 8
  %30 = load ptr, ptr %11, align 8
  %31 = call ptr @RegisterSnapshot(ptr noundef %30)
  %32 = load ptr, ptr %17, align 8
  %33 = getelementptr inbounds nuw %struct.QueryDesc, ptr %32, i32 0, i32 3
  store ptr %31, ptr %33, align 8
  %34 = load ptr, ptr %12, align 8
  %35 = call ptr @RegisterSnapshot(ptr noundef %34)
  %36 = load ptr, ptr %17, align 8
  %37 = getelementptr inbounds nuw %struct.QueryDesc, ptr %36, i32 0, i32 4
  store ptr %35, ptr %37, align 8
  %38 = load ptr, ptr %13, align 8
  %39 = load ptr, ptr %17, align 8
  %40 = getelementptr inbounds nuw %struct.QueryDesc, ptr %39, i32 0, i32 5
  store ptr %38, ptr %40, align 8
  %41 = load ptr, ptr %14, align 8
  %42 = load ptr, ptr %17, align 8
  %43 = getelementptr inbounds nuw %struct.QueryDesc, ptr %42, i32 0, i32 6
  store ptr %41, ptr %43, align 8
  %44 = load ptr, ptr %15, align 8
  %45 = load ptr, ptr %17, align 8
  %46 = getelementptr inbounds nuw %struct.QueryDesc, ptr %45, i32 0, i32 7
  store ptr %44, ptr %46, align 8
  %47 = load i32, ptr %16, align 4
  %48 = load ptr, ptr %17, align 8
  %49 = getelementptr inbounds nuw %struct.QueryDesc, ptr %48, i32 0, i32 8
  store i32 %47, ptr %49, align 8
  %50 = load ptr, ptr %17, align 8
  %51 = getelementptr inbounds nuw %struct.QueryDesc, ptr %50, i32 0, i32 9
  store ptr null, ptr %51, align 8
  %52 = load ptr, ptr %17, align 8
  %53 = getelementptr inbounds nuw %struct.QueryDesc, ptr %52, i32 0, i32 10
  store ptr null, ptr %53, align 8
  %54 = load ptr, ptr %17, align 8
  %55 = getelementptr inbounds nuw %struct.QueryDesc, ptr %54, i32 0, i32 11
  store ptr null, ptr %55, align 8
  %56 = load ptr, ptr %17, align 8
  %57 = getelementptr inbounds nuw %struct.QueryDesc, ptr %56, i32 0, i32 13
  store ptr null, ptr %57, align 8
  %58 = load ptr, ptr %17, align 8
  %59 = getelementptr inbounds nuw %struct.QueryDesc, ptr %58, i32 0, i32 12
  store i8 0, ptr %59, align 8
  %60 = load ptr, ptr %17, align 8
  call void @llvm.lifetime.end.p0(i64 8, ptr %17) #10
  ret ptr %60
}

; Function Attrs: nounwind uwtable
define internal void @ProcessQuery(ptr noundef %0, ptr noundef %1, ptr noundef %2, ptr noundef %3, ptr noundef %4, ptr noundef %5) #0 {
  %7 = alloca ptr, align 8
  %8 = alloca ptr, align 8
  %9 = alloca ptr, align 8
  %10 = alloca ptr, align 8
  %11 = alloca ptr, align 8
  %12 = alloca ptr, align 8
  %13 = alloca ptr, align 8
  store ptr %0, ptr %7, align 8
  store ptr %1, ptr %8, align 8
  store ptr %2, ptr %9, align 8
  store ptr %3, ptr %10, align 8
  store ptr %4, ptr %11, align 8
  store ptr %5, ptr %12, align 8
  call void @llvm.lifetime.start.p0(i64 8, ptr %13) #10
  %14 = load ptr, ptr %7, align 8
  %15 = load ptr, ptr %8, align 8
  %16 = call ptr @GetActiveSnapshot()
  %17 = load ptr, ptr %11, align 8
  %18 = load ptr, ptr %9, align 8
  %19 = load ptr, ptr %10, align 8
  %20 = call ptr @CreateQueryDesc(ptr noundef %14, ptr noundef %15, ptr noundef %16, ptr noundef null, ptr noundef %17, ptr noundef %18, ptr noundef %19, i32 noundef 0)
  store ptr %20, ptr %13, align 8
  %21 = load ptr, ptr %13, align 8
  call void @ExecutorStart(ptr noundef %21, i32 noundef 0)
  %22 = load ptr, ptr %13, align 8
  call void @ExecutorRun(ptr noundef %22, i32 noundef 1, i64 noundef 0)
  %23 = load ptr, ptr %12, align 8
  %24 = icmp ne ptr %23, null
  br i1 %24, label %25, label %72

25:                                               ; preds = %6
  %26 = load ptr, ptr %13, align 8
  %27 = getelementptr inbounds nuw %struct.QueryDesc, ptr %26, i32 0, i32 0
  %28 = load i32, ptr %27, align 8
  switch i32 %28, label %64 [
    i32 1, label %29
    i32 3, label %36
    i32 2, label %43
    i32 4, label %50
    i32 5, label %57
  ]

29:                                               ; preds = %25
  %30 = load ptr, ptr %12, align 8
  %31 = load ptr, ptr %13, align 8
  %32 = getelementptr inbounds nuw %struct.QueryDesc, ptr %31, i32 0, i32 10
  %33 = load ptr, ptr %32, align 8
  %34 = getelementptr inbounds nuw %struct.EState, ptr %33, i32 0, i32 27
  %35 = load i64, ptr %34, align 8
  call void @SetQueryCompletion(ptr noundef %30, i32 noundef 179, i64 noundef %35)
  br label %71

36:                                               ; preds = %25
  %37 = load ptr, ptr %12, align 8
  %38 = load ptr, ptr %13, align 8
  %39 = getelementptr inbounds nuw %struct.QueryDesc, ptr %38, i32 0, i32 10
  %40 = load ptr, ptr %39, align 8
  %41 = getelementptr inbounds nuw %struct.EState, ptr %40, i32 0, i32 27
  %42 = load i64, ptr %41, align 8
  call void @SetQueryCompletion(ptr noundef %37, i32 noundef 158, i64 noundef %42)
  br label %71

43:                                               ; preds = %25
  %44 = load ptr, ptr %12, align 8
  %45 = load ptr, ptr %13, align 8
  %46 = getelementptr inbounds nuw %struct.QueryDesc, ptr %45, i32 0, i32 10
  %47 = load ptr, ptr %46, align 8
  %48 = getelementptr inbounds nuw %struct.EState, ptr %47, i32 0, i32 27
  %49 = load i64, ptr %48, align 8
  call void @SetQueryCompletion(ptr noundef %44, i32 noundef 191, i64 noundef %49)
  br label %71

50:                                               ; preds = %25
  %51 = load ptr, ptr %12, align 8
  %52 = load ptr, ptr %13, align 8
  %53 = getelementptr inbounds nuw %struct.QueryDesc, ptr %52, i32 0, i32 10
  %54 = load ptr, ptr %53, align 8
  %55 = getelementptr inbounds nuw %struct.EState, ptr %54, i32 0, i32 27
  %56 = load i64, ptr %55, align 8
  call void @SetQueryCompletion(ptr noundef %51, i32 noundef 103, i64 noundef %56)
  br label %71

57:                                               ; preds = %25
  %58 = load ptr, ptr %12, align 8
  %59 = load ptr, ptr %13, align 8
  %60 = getelementptr inbounds nuw %struct.QueryDesc, ptr %59, i32 0, i32 10
  %61 = load ptr, ptr %60, align 8
  %62 = getelementptr inbounds nuw %struct.EState, ptr %61, i32 0, i32 27
  %63 = load i64, ptr %62, align 8
  call void @SetQueryCompletion(ptr noundef %58, i32 noundef 163, i64 noundef %63)
  br label %71

64:                                               ; preds = %25
  %65 = load ptr, ptr %12, align 8
  %66 = load ptr, ptr %13, align 8
  %67 = getelementptr inbounds nuw %struct.QueryDesc, ptr %66, i32 0, i32 10
  %68 = load ptr, ptr %67, align 8
  %69 = getelementptr inbounds nuw %struct.EState, ptr %68, i32 0, i32 27
  %70 = load i64, ptr %69, align 8
  call void @SetQueryCompletion(ptr noundef %65, i32 noundef 0, i64 noundef %70)
  br label %71

71:                                               ; preds = %64, %57, %50, %43, %36, %29
  br label %72

72:                                               ; preds = %71, %6
  %73 = load ptr, ptr %13, align 8
  call void @ExecutorFinish(ptr noundef %73)
  %74 = load ptr, ptr %13, align 8
  call void @ExecutorEnd(ptr noundef %74)
  %75 = load ptr, ptr %13, align 8
  call void @FreeQueryDesc(ptr noundef %75)
  call void @llvm.lifetime.end.p0(i64 8, ptr %13) #10
  ret void
}