; Function Attrs: nounwind uwtable
define internal fastcc void @ProcessQuery(ptr noundef %0, ptr noundef %1, ptr noundef %2, ptr noundef %3, ptr noundef %4, ptr noundef writeonly captures(address_is_null) %5) unnamed_addr #0 {
  %7 = tail call ptr @GetActiveSnapshot() #11
  %8 = tail call ptr @palloc(i64 noundef 112) #11
  %9 = getelementptr inbounds nuw i8, ptr %0, i64 4
  %10 = load i32, ptr %9, align 4
  store i32 %10, ptr %8, align 8
  %11 = getelementptr inbounds nuw i8, ptr %8, i64 8
  store ptr %0, ptr %11, align 8
  %12 = getelementptr inbounds nuw i8, ptr %8, i64 16
  store ptr %1, ptr %12, align 8
  %13 = tail call ptr @RegisterSnapshot(ptr noundef %7) #11
  %14 = getelementptr inbounds nuw i8, ptr %8, i64 24
  store ptr %13, ptr %14, align 8
  %15 = tail call ptr @RegisterSnapshot(ptr noundef null) #11
  %16 = getelementptr inbounds nuw i8, ptr %8, i64 32
  store ptr %15, ptr %16, align 8
  %17 = getelementptr inbounds nuw i8, ptr %8, i64 40
  store ptr %4, ptr %17, align 8
  %18 = getelementptr inbounds nuw i8, ptr %8, i64 48
  store ptr %2, ptr %18, align 8
  %19 = getelementptr inbounds nuw i8, ptr %8, i64 56
  store ptr %3, ptr %19, align 8
  %20 = getelementptr inbounds nuw i8, ptr %8, i64 64
  store i32 0, ptr %20, align 8
  %21 = getelementptr inbounds nuw i8, ptr %8, i64 72
  %22 = getelementptr inbounds nuw i8, ptr %8, i64 104
  store ptr null, ptr %22, align 8
  tail call void @llvm.memset.p0.i64(ptr noundef nonnull align 8 dereferenceable(25) %21, i8 0, i64 25, i1 false)
  tail call void @ExecutorStart(ptr noundef nonnull %8, i32 noundef 0) #11
  tail call void @ExecutorRun(ptr noundef nonnull %8, i32 noundef 1, i64 noundef 0) #11
  %.not = icmp eq ptr %5, null
  br i1 %.not, label %32, label %23

23:                                               ; preds = %6
  %24 = load i32, ptr %8, align 8
  %25 = getelementptr inbounds nuw i8, ptr %8, i64 80
  %26 = load ptr, ptr %25, align 8
  %27 = getelementptr inbounds nuw i8, ptr %26, i64 208
  %28 = load i64, ptr %27, align 8
  %29 = getelementptr inbounds nuw i8, ptr %5, i64 8
  %switch.tableidx = add i32 %24, -1
  %30 = icmp ult i32 %switch.tableidx, 5
  br i1 %30, label %switch.lookup, label %.sink.split

switch.lookup:                                    ; preds = %23
  %31 = zext nneg i32 %switch.tableidx to i64
  %switch.gep = getelementptr inbounds nuw [5 x i32], ptr @switch.table.ProcessQuery, i64 0, i64 %31
  %switch.load = load i32, ptr %switch.gep, align 4
  br label %.sink.split

.sink.split:                                      ; preds = %23, %switch.lookup
  %.sink = phi i32 [ %switch.load, %switch.lookup ], [ 0, %23 ]
  store i32 %.sink, ptr %5, align 8
  store i64 %28, ptr %29, align 8
  br label %32

32:                                               ; preds = %.sink.split, %6
  tail call void @ExecutorFinish(ptr noundef nonnull %8) #11
  tail call void @ExecutorEnd(ptr noundef nonnull %8) #11
  %33 = load ptr, ptr %14, align 8
  tail call void @UnregisterSnapshot(ptr noundef %33) #11
  %34 = load ptr, ptr %16, align 8
  tail call void @UnregisterSnapshot(ptr noundef %34) #11
  tail call void @pfree(ptr noundef nonnull %8) #11
  ret void
}